	.section .mdebug.abi32
	.previous
	.nan	legacy
	.module	softfloat
	.module	oddspreg
	.text
.Ltext0:
	.cfi_sections	.debug_frame
	.align	2
	.globl	uartInit
.LFB0 = .
	.file 1 "main.c"
	.loc 1 27 0
	.cfi_startproc
	.set	nomips16
	.set	nomicromips
	.ent	uartInit
	.type	uartInit, @function
uartInit:
	.frame	$sp,0,$31		# vars= 0, regs= 0/0, args= 0, gp= 0
	.mask	0x00000000,0
	.fmask	0x00000000,0
	.set	noreorder
	.set	nomacro
.LVL0 = .
	.loc 1 28 0
	li	$2,-1337982976			# 0xffffffffb0400000
	li	$3,3			# 0x3
	sw	$3,4108($2)
	.loc 1 29 0
	lw	$3,4108($2)
	ori	$3,$3,0x80
	sw	$3,4108($2)
	.loc 1 30 0
	andi	$3,$4,0x00ff
	sw	$3,4096($2)
	.loc 1 31 0
	srl	$4,$4,8
.LVL1 = .
	sw	$4,4100($2)
	.loc 1 32 0
	lw	$3,4108($2)
	ins	$3,$0,7,1
	sw	$3,4108($2)
	jr	$31
	nop

	.set	macro
	.set	reorder
	.end	uartInit
	.cfi_endproc
.LFE0:
	.size	uartInit, .-uartInit
	.align	2
	.globl	uartTransmit
.LFB1 = .
	.loc 1 36 0
	.cfi_startproc
	.set	nomips16
	.set	nomicromips
	.ent	uartTransmit
	.type	uartTransmit, @function
uartTransmit:
	.frame	$sp,0,$31		# vars= 0, regs= 0/0, args= 0, gp= 0
	.mask	0x00000000,0
	.fmask	0x00000000,0
	.set	noreorder
	.set	nomacro
.LVL2 = .
	.loc 1 38 0
	li	$3,-1337982976			# 0xffffffffb0400000
.L3:
	.loc 1 38 0 is_stmt 0 discriminator 1
	lw	$2,4116($3)
	andi	$2,$2,0x20
	beq	$2,$0,.L3
	li	$2,-1337982976			# 0xffffffffb0400000

	.loc 1 41 0 is_stmt 1
	sw	$4,4096($2)
	jr	$31
	nop

	.set	macro
	.set	reorder
	.end	uartTransmit
	.cfi_endproc
.LFE1:
	.size	uartTransmit, .-uartTransmit
	.align	2
	.globl	receivedDataOutput
.LFB2 = .
	.loc 1 45 0
	.cfi_startproc
	.set	nomips16
	.set	nomicromips
	.ent	receivedDataOutput
	.type	receivedDataOutput, @function
receivedDataOutput:
	.frame	$sp,0,$31		# vars= 0, regs= 0/0, args= 0, gp= 0
	.mask	0x00000000,0
	.fmask	0x00000000,0
	.set	noreorder
	.set	nomacro
.LVL3 = .
	.loc 1 46 0
	li	$2,-1082130432			# 0xffffffffbf800000
	sw	$4,0($2)
	.loc 1 47 0
	sw	$4,4($2)
	.loc 1 48 0
	sw	$4,16($2)
	jr	$31
	nop

	.set	macro
	.set	reorder
	.end	receivedDataOutput
	.cfi_endproc
.LFE2:
	.size	receivedDataOutput, .-receivedDataOutput
	.align	2
	.globl	uartReceive
.LFB3 = .
	.loc 1 52 0
	.cfi_startproc
	.set	nomips16
	.set	nomicromips
	.ent	uartReceive
	.type	uartReceive, @function
uartReceive:
	.frame	$sp,0,$31		# vars= 0, regs= 0/0, args= 0, gp= 0
	.mask	0x00000000,0
	.fmask	0x00000000,0
	.set	noreorder
	.set	nomacro
	.loc 1 54 0
	li	$3,-1337982976			# 0xffffffffb0400000
.L7:
	.loc 1 54 0 is_stmt 0 discriminator 1
	lw	$2,4116($3)
	andi	$2,$2,0x1
	beq	$2,$0,.L7
	li	$2,-1337982976			# 0xffffffffb0400000

	.loc 1 56 0 is_stmt 1
	lw	$2,4096($2)
	.loc 1 57 0
	jr	$31
	andi	$2,$2,0x00ff

	.set	macro
	.set	reorder
	.end	uartReceive
	.cfi_endproc
.LFE3:
	.size	uartReceive, .-uartReceive
	.align	2
	.globl	uartWrite
.LFB4 = .
	.loc 1 60 0
	.cfi_startproc
	.set	nomips16
	.set	nomicromips
	.ent	uartWrite
	.type	uartWrite, @function
uartWrite:
	.frame	$sp,24,$31		# vars= 0, regs= 2/0, args= 16, gp= 0
	.mask	0x80010000,-4
	.fmask	0x00000000,0
	.set	noreorder
	.set	nomacro
.LVL4 = .
	addiu	$sp,$sp,-24
.LCFI0 = .
	.cfi_def_cfa_offset 24
	sw	$31,20($sp)
	sw	$16,16($sp)
	.cfi_offset 31, -4
	.cfi_offset 16, -8
	move	$16,$4
	.loc 1 61 0
	lbu	$4,0($4)
.LVL5 = .
	beq	$4,$0,.L15
	lw	$31,20($sp)

.L12:
.LVL6 = .
	.loc 1 62 0
	jal	uartTransmit
	addiu	$16,$16,1

.LVL7 = .
	.loc 1 61 0
	lbu	$4,0($16)
	bne	$4,$0,.L12
	lw	$31,20($sp)

.L15:
	.loc 1 63 0
	lw	$16,16($sp)
.LVL8 = .
	jr	$31
	addiu	$sp,$sp,24

.LCFI1 = .
	.cfi_def_cfa_offset 0
	.cfi_restore 16
	.cfi_restore 31
	.set	macro
	.set	reorder
	.end	uartWrite
	.cfi_endproc
.LFE4:
	.size	uartWrite, .-uartWrite
	.section	.rodata.str1.4,"aMS",@progbits,1
	.align	2
.LC0:
	.ascii	"Hello!\000"
	.text
	.align	2
	.globl	main
.LFB5 = .
	.loc 1 66 0
	.cfi_startproc
	.set	nomips16
	.set	nomicromips
	.ent	main
	.type	main, @function
main:
	.frame	$sp,24,$31		# vars= 0, regs= 2/0, args= 16, gp= 0
	.mask	0x80010000,-4
	.fmask	0x00000000,0
	.set	noreorder
	.set	nomacro
	addiu	$sp,$sp,-24
.LCFI2 = .
	.cfi_def_cfa_offset 24
	sw	$31,20($sp)
	sw	$16,16($sp)
	.cfi_offset 31, -4
	.cfi_offset 16, -8
.LVL9 = .
	.loc 1 69 0
	jal	uartInit
	li	$4,27			# 0x1b

.LVL10 = .
	.loc 1 72 0
	lui	$4,%hi(.LC0)
	jal	uartWrite
	addiu	$4,$4,%lo(.LC0)

.LVL11 = .
.L17:
.LBB2 = .
	.loc 1 77 0 discriminator 1
	jal	uartReceive
	nop

.LVL12 = .
	move	$16,$2
.LVL13 = .
	.loc 1 78 0 discriminator 1
	jal	receivedDataOutput
	move	$4,$2

.LVL14 = .
	.loc 1 81 0 discriminator 1
	jal	uartTransmit
	move	$4,$16

.LVL15 = .
	b	.L17
	nop

.LBE2 = .
	.set	macro
	.set	reorder
	.end	main
	.cfi_endproc
.LFE5:
	.size	main, .-main
.Letext0:
	.file 2 "/opt/imgtec/Toolchains/mips-mti-elf/2017.10-05/mips-mti-elf/include/machine/_default_types.h"
	.file 3 "/opt/imgtec/Toolchains/mips-mti-elf/2017.10-05/mips-mti-elf/include/sys/_stdint.h"