
program.elf:     file format elf32-tradlittlemips


Disassembly of section .reset:

9fc00000 <start>:
start():
9fc00000:	40804800 	mtc0	zero,c0_count

9fc00004 <init_gpr>:
init_gpr():
9fc00004:	3c01dead 	lui	at,0xdead
/home/zsl/work/github/mipsfpga-plus_zsl/programs/00_counter/../../common/build/boot.S:24
9fc00008:	3421beef 	ori	at,at,0xbeef
/home/zsl/work/github/mipsfpga-plus_zsl/programs/00_counter/../../common/build/boot.S:30
9fc0000c:	401d6002 	mfc0	sp,c0_srsctl
/home/zsl/work/github/mipsfpga-plus_zsl/programs/00_counter/../../common/build/boot.S:31
9fc00010:	7fbe1e80 	ext	s8,sp,0x1a,0x4

9fc00014 <next_shadow_set>:
next_shadow_set():
9fc00014:	7fdd4984 	ins	sp,s8,0x6,0x4
/home/zsl/work/github/mipsfpga-plus_zsl/programs/00_counter/../../common/build/boot.S:35
9fc00018:	409d6002 	mtc0	sp,c0_srsctl
/home/zsl/work/github/mipsfpga-plus_zsl/programs/00_counter/../../common/build/boot.S:37
9fc0001c:	41c10800 	wrpgpr	at,at
/home/zsl/work/github/mipsfpga-plus_zsl/programs/00_counter/../../common/build/boot.S:38
9fc00020:	41c11000 	wrpgpr	v0,at
/home/zsl/work/github/mipsfpga-plus_zsl/programs/00_counter/../../common/build/boot.S:39
9fc00024:	41c11800 	wrpgpr	v1,at
/home/zsl/work/github/mipsfpga-plus_zsl/programs/00_counter/../../common/build/boot.S:40
9fc00028:	41c12000 	wrpgpr	a0,at
/home/zsl/work/github/mipsfpga-plus_zsl/programs/00_counter/../../common/build/boot.S:41
9fc0002c:	41c12800 	wrpgpr	a1,at
/home/zsl/work/github/mipsfpga-plus_zsl/programs/00_counter/../../common/build/boot.S:42
9fc00030:	41c13000 	wrpgpr	a2,at
/home/zsl/work/github/mipsfpga-plus_zsl/programs/00_counter/../../common/build/boot.S:43
9fc00034:	41c13800 	wrpgpr	a3,at
/home/zsl/work/github/mipsfpga-plus_zsl/programs/00_counter/../../common/build/boot.S:44
9fc00038:	41c14000 	wrpgpr	t0,at
/home/zsl/work/github/mipsfpga-plus_zsl/programs/00_counter/../../common/build/boot.S:45
9fc0003c:	41c14800 	wrpgpr	t1,at
/home/zsl/work/github/mipsfpga-plus_zsl/programs/00_counter/../../common/build/boot.S:46
9fc00040:	41c15000 	wrpgpr	t2,at
/home/zsl/work/github/mipsfpga-plus_zsl/programs/00_counter/../../common/build/boot.S:47
9fc00044:	41c15800 	wrpgpr	t3,at
/home/zsl/work/github/mipsfpga-plus_zsl/programs/00_counter/../../common/build/boot.S:48
9fc00048:	41c16000 	wrpgpr	t4,at
/home/zsl/work/github/mipsfpga-plus_zsl/programs/00_counter/../../common/build/boot.S:49
9fc0004c:	41c16800 	wrpgpr	t5,at
/home/zsl/work/github/mipsfpga-plus_zsl/programs/00_counter/../../common/build/boot.S:50
9fc00050:	41c17000 	wrpgpr	t6,at
/home/zsl/work/github/mipsfpga-plus_zsl/programs/00_counter/../../common/build/boot.S:51
9fc00054:	41c17800 	wrpgpr	t7,at
/home/zsl/work/github/mipsfpga-plus_zsl/programs/00_counter/../../common/build/boot.S:52
9fc00058:	41c18000 	wrpgpr	s0,at
/home/zsl/work/github/mipsfpga-plus_zsl/programs/00_counter/../../common/build/boot.S:53
9fc0005c:	41c18800 	wrpgpr	s1,at
/home/zsl/work/github/mipsfpga-plus_zsl/programs/00_counter/../../common/build/boot.S:54
9fc00060:	41c19000 	wrpgpr	s2,at
/home/zsl/work/github/mipsfpga-plus_zsl/programs/00_counter/../../common/build/boot.S:55
9fc00064:	41c19800 	wrpgpr	s3,at
/home/zsl/work/github/mipsfpga-plus_zsl/programs/00_counter/../../common/build/boot.S:56
9fc00068:	41c1a000 	wrpgpr	s4,at
/home/zsl/work/github/mipsfpga-plus_zsl/programs/00_counter/../../common/build/boot.S:57
9fc0006c:	41c1a800 	wrpgpr	s5,at
/home/zsl/work/github/mipsfpga-plus_zsl/programs/00_counter/../../common/build/boot.S:58
9fc00070:	41c1b000 	wrpgpr	s6,at
/home/zsl/work/github/mipsfpga-plus_zsl/programs/00_counter/../../common/build/boot.S:59
9fc00074:	41c1b800 	wrpgpr	s7,at
/home/zsl/work/github/mipsfpga-plus_zsl/programs/00_counter/../../common/build/boot.S:60
9fc00078:	41c1c000 	wrpgpr	t8,at
/home/zsl/work/github/mipsfpga-plus_zsl/programs/00_counter/../../common/build/boot.S:61
9fc0007c:	41c1c800 	wrpgpr	t9,at
/home/zsl/work/github/mipsfpga-plus_zsl/programs/00_counter/../../common/build/boot.S:62
9fc00080:	41c1d000 	wrpgpr	k0,at
/home/zsl/work/github/mipsfpga-plus_zsl/programs/00_counter/../../common/build/boot.S:63
9fc00084:	41c1d800 	wrpgpr	k1,at
/home/zsl/work/github/mipsfpga-plus_zsl/programs/00_counter/../../common/build/boot.S:64
9fc00088:	41c1e000 	wrpgpr	gp,at
/home/zsl/work/github/mipsfpga-plus_zsl/programs/00_counter/../../common/build/boot.S:65
9fc0008c:	13c00005 	beqz	s8,9fc000a4 <init_cp0>
/home/zsl/work/github/mipsfpga-plus_zsl/programs/00_counter/../../common/build/boot.S:66
9fc00090:	41c1e800 	wrpgpr	sp,at
/home/zsl/work/github/mipsfpga-plus_zsl/programs/00_counter/../../common/build/boot.S:68
9fc00094:	41c1f000 	wrpgpr	s8,at
/home/zsl/work/github/mipsfpga-plus_zsl/programs/00_counter/../../common/build/boot.S:69
9fc00098:	41c1f800 	wrpgpr	ra,at
/home/zsl/work/github/mipsfpga-plus_zsl/programs/00_counter/../../common/build/boot.S:70
9fc0009c:	1000ffdd 	b	9fc00014 <next_shadow_set>
/home/zsl/work/github/mipsfpga-plus_zsl/programs/00_counter/../../common/build/boot.S:71
9fc000a0:	23deffff 	addi	s8,s8,-1

9fc000a4 <init_cp0>:
init_cp0():
9fc000a4:	3c030040 	lui	v1,0x40
/home/zsl/work/github/mipsfpga-plus_zsl/programs/00_counter/../../common/build/boot.S:78
9fc000a8:	34630004 	ori	v1,v1,0x4
/home/zsl/work/github/mipsfpga-plus_zsl/programs/00_counter/../../common/build/boot.S:79
9fc000ac:	40836000 	mtc0	v1,c0_status
/home/zsl/work/github/mipsfpga-plus_zsl/programs/00_counter/../../common/build/boot.S:82
9fc000b0:	40028001 	mfc0	v0,c0_config1
/home/zsl/work/github/mipsfpga-plus_zsl/programs/00_counter/../../common/build/boot.S:83
9fc000b4:	7c4300c0 	ext	v1,v0,0x3,0x1
/home/zsl/work/github/mipsfpga-plus_zsl/programs/00_counter/../../common/build/boot.S:84
9fc000b8:	1060001f 	beqz	v1,9fc00138 <done_wr>
/home/zsl/work/github/mipsfpga-plus_zsl/programs/00_counter/../../common/build/boot.S:85
9fc000bc:	24030007 	li	v1,7
/home/zsl/work/github/mipsfpga-plus_zsl/programs/00_counter/../../common/build/boot.S:88
9fc000c0:	40839800 	mtc0	v1,c0_watchhi
/home/zsl/work/github/mipsfpga-plus_zsl/programs/00_counter/../../common/build/boot.S:89
9fc000c4:	40029800 	mfc0	v0,c0_watchhi
/home/zsl/work/github/mipsfpga-plus_zsl/programs/00_counter/../../common/build/boot.S:90
9fc000c8:	0441001b 	bgez	v0,9fc00138 <done_wr>
/home/zsl/work/github/mipsfpga-plus_zsl/programs/00_counter/../../common/build/boot.S:91
9fc000cc:	40809000 	mtc0	zero,c0_watchlo
/home/zsl/work/github/mipsfpga-plus_zsl/programs/00_counter/../../common/build/boot.S:93
9fc000d0:	40839801 	mtc0	v1,c0_watchhi,1
/home/zsl/work/github/mipsfpga-plus_zsl/programs/00_counter/../../common/build/boot.S:94
9fc000d4:	40029801 	mfc0	v0,c0_watchhi,1
/home/zsl/work/github/mipsfpga-plus_zsl/programs/00_counter/../../common/build/boot.S:95
9fc000d8:	04410017 	bgez	v0,9fc00138 <done_wr>
/home/zsl/work/github/mipsfpga-plus_zsl/programs/00_counter/../../common/build/boot.S:96
9fc000dc:	40809001 	mtc0	zero,c0_watchlo,1
/home/zsl/work/github/mipsfpga-plus_zsl/programs/00_counter/../../common/build/boot.S:98
9fc000e0:	40839802 	mtc0	v1,c0_watchhi,2
/home/zsl/work/github/mipsfpga-plus_zsl/programs/00_counter/../../common/build/boot.S:99
9fc000e4:	40029802 	mfc0	v0,c0_watchhi,2
/home/zsl/work/github/mipsfpga-plus_zsl/programs/00_counter/../../common/build/boot.S:100
9fc000e8:	04410013 	bgez	v0,9fc00138 <done_wr>
/home/zsl/work/github/mipsfpga-plus_zsl/programs/00_counter/../../common/build/boot.S:101
9fc000ec:	40809002 	mtc0	zero,c0_watchlo,2
/home/zsl/work/github/mipsfpga-plus_zsl/programs/00_counter/../../common/build/boot.S:103
9fc000f0:	40839803 	mtc0	v1,c0_watchhi,3
/home/zsl/work/github/mipsfpga-plus_zsl/programs/00_counter/../../common/build/boot.S:104
9fc000f4:	40029803 	mfc0	v0,c0_watchhi,3
/home/zsl/work/github/mipsfpga-plus_zsl/programs/00_counter/../../common/build/boot.S:105
9fc000f8:	0441000f 	bgez	v0,9fc00138 <done_wr>
/home/zsl/work/github/mipsfpga-plus_zsl/programs/00_counter/../../common/build/boot.S:106
9fc000fc:	40809003 	mtc0	zero,c0_watchlo,3
/home/zsl/work/github/mipsfpga-plus_zsl/programs/00_counter/../../common/build/boot.S:108
9fc00100:	40839804 	mtc0	v1,c0_watchhi,4
/home/zsl/work/github/mipsfpga-plus_zsl/programs/00_counter/../../common/build/boot.S:109
9fc00104:	40029804 	mfc0	v0,c0_watchhi,4
/home/zsl/work/github/mipsfpga-plus_zsl/programs/00_counter/../../common/build/boot.S:110
9fc00108:	0441000b 	bgez	v0,9fc00138 <done_wr>
/home/zsl/work/github/mipsfpga-plus_zsl/programs/00_counter/../../common/build/boot.S:111
9fc0010c:	40809004 	mtc0	zero,c0_watchlo,4
/home/zsl/work/github/mipsfpga-plus_zsl/programs/00_counter/../../common/build/boot.S:113
9fc00110:	40839805 	mtc0	v1,c0_watchhi,5
/home/zsl/work/github/mipsfpga-plus_zsl/programs/00_counter/../../common/build/boot.S:114
9fc00114:	40029805 	mfc0	v0,c0_watchhi,5
/home/zsl/work/github/mipsfpga-plus_zsl/programs/00_counter/../../common/build/boot.S:115
9fc00118:	04410007 	bgez	v0,9fc00138 <done_wr>
/home/zsl/work/github/mipsfpga-plus_zsl/programs/00_counter/../../common/build/boot.S:116
9fc0011c:	40809005 	mtc0	zero,c0_watchlo,5
/home/zsl/work/github/mipsfpga-plus_zsl/programs/00_counter/../../common/build/boot.S:118
9fc00120:	40839806 	mtc0	v1,c0_watchhi,6
/home/zsl/work/github/mipsfpga-plus_zsl/programs/00_counter/../../common/build/boot.S:119
9fc00124:	40029806 	mfc0	v0,c0_watchhi,6
/home/zsl/work/github/mipsfpga-plus_zsl/programs/00_counter/../../common/build/boot.S:120
9fc00128:	04410003 	bgez	v0,9fc00138 <done_wr>
/home/zsl/work/github/mipsfpga-plus_zsl/programs/00_counter/../../common/build/boot.S:121
9fc0012c:	40809006 	mtc0	zero,c0_watchlo,6
/home/zsl/work/github/mipsfpga-plus_zsl/programs/00_counter/../../common/build/boot.S:123
9fc00130:	40839807 	mtc0	v1,c0_watchhi,7
/home/zsl/work/github/mipsfpga-plus_zsl/programs/00_counter/../../common/build/boot.S:124
9fc00134:	40809007 	mtc0	zero,c0_watchlo,7

9fc00138 <done_wr>:
done_wr():
9fc00138:	40806800 	mtc0	zero,c0_cause
/home/zsl/work/github/mipsfpga-plus_zsl/programs/00_counter/../../common/build/boot.S:131
9fc0013c:	40805800 	mtc0	zero,c0_compare

9fc00140 <init_tlb>:
init_tlb():
9fc00140:	40038000 	mfc0	v1,c0_config
/home/zsl/work/github/mipsfpga-plus_zsl/programs/00_counter/../../common/build/boot.S:142
9fc00144:	7c6311c0 	ext	v1,v1,0x7,0x3
/home/zsl/work/github/mipsfpga-plus_zsl/programs/00_counter/../../common/build/boot.S:143
9fc00148:	24070001 	li	a3,1
/home/zsl/work/github/mipsfpga-plus_zsl/programs/00_counter/../../common/build/boot.S:144
9fc0014c:	1467000e 	bne	v1,a3,9fc00188 <init_icache>
/home/zsl/work/github/mipsfpga-plus_zsl/programs/00_counter/../../common/build/boot.S:147
9fc00150:	40028001 	mfc0	v0,c0_config1
/home/zsl/work/github/mipsfpga-plus_zsl/programs/00_counter/../../common/build/boot.S:148
9fc00154:	7c432e40 	ext	v1,v0,0x19,0x6
/home/zsl/work/github/mipsfpga-plus_zsl/programs/00_counter/../../common/build/boot.S:149
9fc00158:	40801000 	mtc0	zero,c0_entrylo0
/home/zsl/work/github/mipsfpga-plus_zsl/programs/00_counter/../../common/build/boot.S:150
9fc0015c:	40801800 	mtc0	zero,c0_entrylo1
/home/zsl/work/github/mipsfpga-plus_zsl/programs/00_counter/../../common/build/boot.S:151
9fc00160:	40802800 	mtc0	zero,c0_pagemask
/home/zsl/work/github/mipsfpga-plus_zsl/programs/00_counter/../../common/build/boot.S:152
9fc00164:	40803000 	mtc0	zero,c0_wired
/home/zsl/work/github/mipsfpga-plus_zsl/programs/00_counter/../../common/build/boot.S:153
9fc00168:	3c048000 	lui	a0,0x8000

9fc0016c <next_tlb_entry>:
next_tlb_entry():
9fc0016c:	40830000 	mtc0	v1,c0_index
/home/zsl/work/github/mipsfpga-plus_zsl/programs/00_counter/../../common/build/boot.S:157
9fc00170:	40845000 	mtc0	a0,c0_entryhi
/home/zsl/work/github/mipsfpga-plus_zsl/programs/00_counter/../../common/build/boot.S:158
9fc00174:	000000c0 	ehb
/home/zsl/work/github/mipsfpga-plus_zsl/programs/00_counter/../../common/build/boot.S:159
9fc00178:	42000002 	tlbwi
/home/zsl/work/github/mipsfpga-plus_zsl/programs/00_counter/../../common/build/boot.S:160
9fc0017c:	20844000 	addi	a0,a0,16384
/home/zsl/work/github/mipsfpga-plus_zsl/programs/00_counter/../../common/build/boot.S:162
9fc00180:	1460fffa 	bnez	v1,9fc0016c <next_tlb_entry>
/home/zsl/work/github/mipsfpga-plus_zsl/programs/00_counter/../../common/build/boot.S:163
9fc00184:	2063ffff 	addi	v1,v1,-1

9fc00188 <init_icache>:
init_icache():
9fc00188:	40028001 	mfc0	v0,c0_config1
/home/zsl/work/github/mipsfpga-plus_zsl/programs/00_counter/../../common/build/boot.S:171
9fc0018c:	7c4314c0 	ext	v1,v0,0x13,0x3
/home/zsl/work/github/mipsfpga-plus_zsl/programs/00_counter/../../common/build/boot.S:172
9fc00190:	10600010 	beqz	v1,9fc001d4 <done_icache>
/home/zsl/work/github/mipsfpga-plus_zsl/programs/00_counter/../../common/build/boot.S:173
9fc00194:	00000000 	nop
/home/zsl/work/github/mipsfpga-plus_zsl/programs/00_counter/../../common/build/boot.S:175
9fc00198:	24060002 	li	a2,2
/home/zsl/work/github/mipsfpga-plus_zsl/programs/00_counter/../../common/build/boot.S:176
9fc0019c:	00661804 	sllv	v1,a2,v1
/home/zsl/work/github/mipsfpga-plus_zsl/programs/00_counter/../../common/build/boot.S:178
9fc001a0:	7c441580 	ext	a0,v0,0x16,0x3
/home/zsl/work/github/mipsfpga-plus_zsl/programs/00_counter/../../common/build/boot.S:179
9fc001a4:	24060040 	li	a2,64
/home/zsl/work/github/mipsfpga-plus_zsl/programs/00_counter/../../common/build/boot.S:180
9fc001a8:	00862004 	sllv	a0,a2,a0
/home/zsl/work/github/mipsfpga-plus_zsl/programs/00_counter/../../common/build/boot.S:182
9fc001ac:	7c451400 	ext	a1,v0,0x10,0x3
/home/zsl/work/github/mipsfpga-plus_zsl/programs/00_counter/../../common/build/boot.S:183
9fc001b0:	20a50001 	addi	a1,a1,1
/home/zsl/work/github/mipsfpga-plus_zsl/programs/00_counter/../../common/build/boot.S:184
9fc001b4:	70852002 	mul	a0,a0,a1
/home/zsl/work/github/mipsfpga-plus_zsl/programs/00_counter/../../common/build/boot.S:185
9fc001b8:	3c068000 	lui	a2,0x8000
/home/zsl/work/github/mipsfpga-plus_zsl/programs/00_counter/../../common/build/boot.S:187
9fc001bc:	4080e000 	mtc0	zero,c0_taglo
/home/zsl/work/github/mipsfpga-plus_zsl/programs/00_counter/../../common/build/boot.S:188
9fc001c0:	00803825 	move	a3,a0

9fc001c4 <next_icache_tag>:
next_icache_tag():
9fc001c4:	bcc80000 	cache	0x8,0(a2)
/home/zsl/work/github/mipsfpga-plus_zsl/programs/00_counter/../../common/build/boot.S:194
9fc001c8:	20e7ffff 	addi	a3,a3,-1
/home/zsl/work/github/mipsfpga-plus_zsl/programs/00_counter/../../common/build/boot.S:195
9fc001cc:	14e0fffd 	bnez	a3,9fc001c4 <next_icache_tag>
/home/zsl/work/github/mipsfpga-plus_zsl/programs/00_counter/../../common/build/boot.S:196
9fc001d0:	00c33020 	add	a2,a2,v1

9fc001d4 <done_icache>:
done_icache():
9fc001d4:	40028000 	mfc0	v0,c0_config
/home/zsl/work/github/mipsfpga-plus_zsl/programs/00_counter/../../common/build/boot.S:209
9fc001d8:	24030003 	li	v1,3
/home/zsl/work/github/mipsfpga-plus_zsl/programs/00_counter/../../common/build/boot.S:210
9fc001dc:	7c621004 	ins	v0,v1,0x0,0x3
/home/zsl/work/github/mipsfpga-plus_zsl/programs/00_counter/../../common/build/boot.S:211
9fc001e0:	40828000 	mtc0	v0,c0_config
/home/zsl/work/github/mipsfpga-plus_zsl/programs/00_counter/../../common/build/boot.S:213
9fc001e4:	3c069fc0 	lui	a2,0x9fc0
9fc001e8:	24c601f4 	addiu	a2,a2,500
/home/zsl/work/github/mipsfpga-plus_zsl/programs/00_counter/../../common/build/boot.S:214
9fc001ec:	00c00008 	jr	a2
/home/zsl/work/github/mipsfpga-plus_zsl/programs/00_counter/../../common/build/boot.S:215
9fc001f0:	000000c0 	ehb

9fc001f4 <init_dcache>:
init_dcache():
9fc001f4:	40028001 	mfc0	v0,c0_config1
/home/zsl/work/github/mipsfpga-plus_zsl/programs/00_counter/../../common/build/boot.S:222
9fc001f8:	7c431280 	ext	v1,v0,0xa,0x3
/home/zsl/work/github/mipsfpga-plus_zsl/programs/00_counter/../../common/build/boot.S:223
9fc001fc:	10600011 	beqz	v1,9fc00244 <done_dcache>
/home/zsl/work/github/mipsfpga-plus_zsl/programs/00_counter/../../common/build/boot.S:224
9fc00200:	00000000 	nop
/home/zsl/work/github/mipsfpga-plus_zsl/programs/00_counter/../../common/build/boot.S:226
9fc00204:	24060002 	li	a2,2
/home/zsl/work/github/mipsfpga-plus_zsl/programs/00_counter/../../common/build/boot.S:227
9fc00208:	00661804 	sllv	v1,a2,v1
/home/zsl/work/github/mipsfpga-plus_zsl/programs/00_counter/../../common/build/boot.S:229
9fc0020c:	7c441340 	ext	a0,v0,0xd,0x3
/home/zsl/work/github/mipsfpga-plus_zsl/programs/00_counter/../../common/build/boot.S:230
9fc00210:	24060040 	li	a2,64
/home/zsl/work/github/mipsfpga-plus_zsl/programs/00_counter/../../common/build/boot.S:231
9fc00214:	00862004 	sllv	a0,a2,a0
/home/zsl/work/github/mipsfpga-plus_zsl/programs/00_counter/../../common/build/boot.S:233
9fc00218:	7c4511c0 	ext	a1,v0,0x7,0x3
/home/zsl/work/github/mipsfpga-plus_zsl/programs/00_counter/../../common/build/boot.S:234
9fc0021c:	20a50001 	addi	a1,a1,1
/home/zsl/work/github/mipsfpga-plus_zsl/programs/00_counter/../../common/build/boot.S:235
9fc00220:	70852002 	mul	a0,a0,a1
/home/zsl/work/github/mipsfpga-plus_zsl/programs/00_counter/../../common/build/boot.S:236
9fc00224:	3c068000 	lui	a2,0x8000
/home/zsl/work/github/mipsfpga-plus_zsl/programs/00_counter/../../common/build/boot.S:238
9fc00228:	4080e000 	mtc0	zero,c0_taglo
/home/zsl/work/github/mipsfpga-plus_zsl/programs/00_counter/../../common/build/boot.S:239
9fc0022c:	4080e002 	mtc0	zero,c0_taglo1
/home/zsl/work/github/mipsfpga-plus_zsl/programs/00_counter/../../common/build/boot.S:240
9fc00230:	00803825 	move	a3,a0

9fc00234 <next_dcache_tag>:
next_dcache_tag():
9fc00234:	bcc90000 	cache	0x9,0(a2)
/home/zsl/work/github/mipsfpga-plus_zsl/programs/00_counter/../../common/build/boot.S:246
9fc00238:	20e7ffff 	addi	a3,a3,-1
/home/zsl/work/github/mipsfpga-plus_zsl/programs/00_counter/../../common/build/boot.S:247
9fc0023c:	14e0fffd 	bnez	a3,9fc00234 <next_dcache_tag>
/home/zsl/work/github/mipsfpga-plus_zsl/programs/00_counter/../../common/build/boot.S:248
9fc00240:	00c33020 	add	a2,a2,v1

9fc00244 <done_dcache>:
done_dcache():
9fc00244:	3c1f9fc0 	lui	ra,0x9fc0
/home/zsl/work/github/mipsfpga-plus_zsl/programs/00_counter/../../common/build/boot.S:253
9fc00248:	27ff0274 	addiu	ra,ra,628
/home/zsl/work/github/mipsfpga-plus_zsl/programs/00_counter/../../common/build/boot.S:254
9fc0024c:	00002025 	move	a0,zero
/home/zsl/work/github/mipsfpga-plus_zsl/programs/00_counter/../../common/build/boot.S:256
9fc00250:	3c029fc0 	lui	v0,0x9fc0
9fc00254:	24420428 	addiu	v0,v0,1064
/home/zsl/work/github/mipsfpga-plus_zsl/programs/00_counter/../../common/build/boot.S:257
9fc00258:	4082f000 	mtc0	v0,c0_errorepc
/home/zsl/work/github/mipsfpga-plus_zsl/programs/00_counter/../../common/build/boot.S:258
9fc0025c:	000000c0 	ehb
/home/zsl/work/github/mipsfpga-plus_zsl/programs/00_counter/../../common/build/boot.S:262
9fc00260:	3c1d8004 	lui	sp,0x8004
9fc00264:	27bd0000 	addiu	sp,sp,0
/home/zsl/work/github/mipsfpga-plus_zsl/programs/00_counter/../../common/build/boot.S:263
9fc00268:	3c1c9fc1 	lui	gp,0x9fc1
9fc0026c:	279c84f8 	addiu	gp,gp,-31496
/home/zsl/work/github/mipsfpga-plus_zsl/programs/00_counter/../../common/build/boot.S:267
9fc00270:	42000018 	eret

9fc00274 <all_done>:
all_done():
9fc00274:	1000ffff 	b	9fc00274 <all_done>
/home/zsl/work/github/mipsfpga-plus_zsl/programs/00_counter/../../common/build/boot.S:274
9fc00278:	00000000 	nop
9fc0027c:	00000000 	nop

Disassembly of section .pdr:

00000000 <.pdr>:
   0:	9fc00428 	0x9fc00428
	...
  18:	0000001d 	0x1d
  1c:	0000001f 	0x1f

Disassembly of section .gnu.attributes:

00000000 <.gnu.attributes>:
   0:	00000f41 	0xf41
   4:	756e6700 	jalx	5b99c00 <__memory_size+0x5b7a400>
   8:	00070100 	sll	zero,a3,0x4
   c:	03040000 	0x3040000

Disassembly of section .comment:

00000000 <.comment>:
   0:	3a434347 	xori	v1,s2,0x4347
   4:	6f432820 	0x6f432820
   8:	63736564 	0x63736564
   c:	20657061 	addi	a1,v1,28769
  10:	20554e47 	addi	s5,v0,20039
  14:	6c6f6f54 	0x6c6f6f54
  18:	30322073 	andi	s2,at,0x2073
  1c:	312e3731 	andi	t6,t1,0x3731
  20:	35302d30 	ori	s0,t1,0x2d30
  24:	726f6620 	0x726f6620
  28:	50494d20 	beql	v0,t1,134ac <__memory_size-0xc354>
  2c:	544d2053 	bnel	v0,t5,817c <__memory_size-0x17684>
  30:	61422049 	0x61422049
  34:	4d206572 	0x4d206572
  38:	6c617465 	0x6c617465
  3c:	2e362029 	sltiu	s6,s1,8233
  40:	00302e33 	tltu	at,s0,0xb8

Disassembly of section .text_ram:

9fc00280 <deregister_tm_clones>:
deregister_tm_clones():
9fc00280:	3c049fc0 	lui	a0,0x9fc0
9fc00284:	3c029fc0 	lui	v0,0x9fc0
9fc00288:	24840514 	addiu	a0,a0,1300
9fc0028c:	24420517 	addiu	v0,v0,1303
9fc00290:	00441023 	subu	v0,v0,a0
9fc00294:	2c420007 	sltiu	v0,v0,7
9fc00298:	14400006 	bnez	v0,9fc002b4 <deregister_tm_clones+0x34>
9fc0029c:	3c190000 	lui	t9,0x0
9fc002a0:	27390000 	addiu	t9,t9,0
9fc002a4:	13200003 	beqz	t9,9fc002b4 <deregister_tm_clones+0x34>
9fc002a8:	00000000 	nop
9fc002ac:	03200008 	jr	t9
9fc002b0:	00000000 	nop
9fc002b4:	03e00008 	jr	ra
9fc002b8:	00000000 	nop

9fc002bc <register_tm_clones>:
register_tm_clones():
9fc002bc:	3c049fc0 	lui	a0,0x9fc0
9fc002c0:	3c059fc0 	lui	a1,0x9fc0
9fc002c4:	24840514 	addiu	a0,a0,1300
9fc002c8:	24a50514 	addiu	a1,a1,1300
9fc002cc:	00a42823 	subu	a1,a1,a0
9fc002d0:	00052883 	sra	a1,a1,0x2
9fc002d4:	000517c2 	srl	v0,a1,0x1f
9fc002d8:	00452821 	addu	a1,v0,a1
9fc002dc:	00052843 	sra	a1,a1,0x1
9fc002e0:	10a00006 	beqz	a1,9fc002fc <register_tm_clones+0x40>
9fc002e4:	3c190000 	lui	t9,0x0
9fc002e8:	27390000 	addiu	t9,t9,0
9fc002ec:	13200003 	beqz	t9,9fc002fc <register_tm_clones+0x40>
9fc002f0:	00000000 	nop
9fc002f4:	03200008 	jr	t9
9fc002f8:	00000000 	nop
9fc002fc:	03e00008 	jr	ra
9fc00300:	00000000 	nop

9fc00304 <__do_global_dtors_aux>:
__do_global_dtors_aux():
9fc00304:	27bdffd8 	addiu	sp,sp,-40
9fc00308:	afb10018 	sw	s1,24(sp)
9fc0030c:	3c118000 	lui	s1,0x8000
9fc00310:	afb00014 	sw	s0,20(sp)
9fc00314:	afb2001c 	sw	s2,28(sp)
9fc00318:	afb30020 	sw	s3,32(sp)
9fc0031c:	afbf0024 	sw	ra,36(sp)
9fc00320:	92221000 	lbu	v0,4096(s1)
9fc00324:	14400019 	bnez	v0,9fc0038c <__do_global_dtors_aux+0x88>
9fc00328:	3c109fc0 	lui	s0,0x9fc0
9fc0032c:	3c138000 	lui	s3,0x8000
9fc00330:	26020508 	addiu	v0,s0,1288
9fc00334:	3c109fc0 	lui	s0,0x9fc0
9fc00338:	2610050c 	addiu	s0,s0,1292
9fc0033c:	02028023 	subu	s0,s0,v0
9fc00340:	3c029fc0 	lui	v0,0x9fc0
9fc00344:	00108083 	sra	s0,s0,0x2
9fc00348:	24520508 	addiu	s2,v0,1288
9fc0034c:	2610ffff 	addiu	s0,s0,-1
9fc00350:	8e621004 	lw	v0,4100(s3)
9fc00354:	0050182b 	sltu	v1,v0,s0
9fc00358:	14600013 	bnez	v1,9fc003a8 <__do_global_dtors_aux+0xa4>
9fc0035c:	24420001 	addiu	v0,v0,1
9fc00360:	0ff000a0 	jal	9fc00280 <deregister_tm_clones>
9fc00364:	00000000 	nop
9fc00368:	3c020000 	lui	v0,0x0
9fc0036c:	24420000 	addiu	v0,v0,0
9fc00370:	10400005 	beqz	v0,9fc00388 <__do_global_dtors_aux+0x84>
9fc00374:	24020001 	li	v0,1
9fc00378:	3c049fc0 	lui	a0,0x9fc0
9fc0037c:	0c000000 	jal	90000000 <__stack+0xffc0000>
9fc00380:	248404f0 	addiu	a0,a0,1264
9fc00384:	24020001 	li	v0,1
9fc00388:	a2221000 	sb	v0,4096(s1)
9fc0038c:	8fb00014 	lw	s0,20(sp)
9fc00390:	8fb10018 	lw	s1,24(sp)
9fc00394:	8fb2001c 	lw	s2,28(sp)
9fc00398:	8fb30020 	lw	s3,32(sp)
9fc0039c:	8fbf0024 	lw	ra,36(sp)
9fc003a0:	03e00008 	jr	ra
9fc003a4:	27bd0028 	addiu	sp,sp,40
9fc003a8:	ae621004 	sw	v0,4100(s3)
9fc003ac:	00021080 	sll	v0,v0,0x2
9fc003b0:	02421021 	addu	v0,s2,v0
9fc003b4:	8c420000 	lw	v0,0(v0)
9fc003b8:	0040f809 	jalr	v0
9fc003bc:	00000000 	nop
9fc003c0:	1000ffe4 	b	9fc00354 <__do_global_dtors_aux+0x50>
9fc003c4:	8e621004 	lw	v0,4100(s3)

9fc003c8 <frame_dummy>:
frame_dummy():
9fc003c8:	27bdffe8 	addiu	sp,sp,-24
9fc003cc:	3c020000 	lui	v0,0x0
9fc003d0:	24420000 	addiu	v0,v0,0
9fc003d4:	10400006 	beqz	v0,9fc003f0 <frame_dummy+0x28>
9fc003d8:	afbf0014 	sw	ra,20(sp)
9fc003dc:	3c058000 	lui	a1,0x8000
9fc003e0:	3c049fc0 	lui	a0,0x9fc0
9fc003e4:	24a51008 	addiu	a1,a1,4104
9fc003e8:	0c000000 	jal	90000000 <__stack+0xffc0000>
9fc003ec:	248404f0 	addiu	a0,a0,1264
9fc003f0:	3c029fc0 	lui	v0,0x9fc0
9fc003f4:	24440510 	addiu	a0,v0,1296
9fc003f8:	8c820000 	lw	v0,0(a0)
9fc003fc:	10400008 	beqz	v0,9fc00420 <frame_dummy+0x58>
9fc00400:	8fbf0014 	lw	ra,20(sp)
9fc00404:	3c020000 	lui	v0,0x0
9fc00408:	24420000 	addiu	v0,v0,0
9fc0040c:	10400004 	beqz	v0,9fc00420 <frame_dummy+0x58>
9fc00410:	00000000 	nop
9fc00414:	0040f809 	jalr	v0
9fc00418:	00000000 	nop
9fc0041c:	8fbf0014 	lw	ra,20(sp)
9fc00420:	0bf000af 	j	9fc002bc <register_tm_clones>
9fc00424:	27bd0018 	addiu	sp,sp,24

9fc00428 <main>:
main():
/home/zsl/work/github/mipsfpga-plus_zsl/program/00_counter/main.c:5
9fc00428:	00001025 	move	v0,zero
9fc0042c:	00002825 	move	a1,zero
/home/zsl/work/github/mipsfpga-plus_zsl/program/00_counter/main.c:11
9fc00430:	3c03bf80 	lui	v1,0xbf80
/home/zsl/work/github/mipsfpga-plus_zsl/program/00_counter/main.c:11 (discriminator 1)
9fc00434:	00053600 	sll	a2,a1,0x18
9fc00438:	00022202 	srl	a0,v0,0x8
9fc0043c:	00c42025 	or	a0,a2,a0
9fc00440:	ac640000 	sw	a0,0(v1)
/home/zsl/work/github/mipsfpga-plus_zsl/program/00_counter/main.c:12 (discriminator 1)
9fc00444:	8c640000 	lw	a0,0(v1)
9fc00448:	ac640004 	sw	a0,4(v1)
/home/zsl/work/github/mipsfpga-plus_zsl/program/00_counter/main.c:13 (discriminator 1)
9fc0044c:	ac620010 	sw	v0,16(v1)
/home/zsl/work/github/mipsfpga-plus_zsl/program/00_counter/main.c:15 (discriminator 1)
9fc00450:	24440001 	addiu	a0,v0,1
9fc00454:	0082302b 	sltu	a2,a0,v0
9fc00458:	00801025 	move	v0,a0
9fc0045c:	1000fff5 	b	9fc00434 <main+0xc>
9fc00460:	00c52821 	addu	a1,a2,a1

9fc00464 <__do_global_ctors_aux>:
__do_global_ctors_aux():
9fc00464:	27bdffe0 	addiu	sp,sp,-32
9fc00468:	afb00014 	sw	s0,20(sp)
9fc0046c:	3c109fc0 	lui	s0,0x9fc0
9fc00470:	afb10018 	sw	s1,24(sp)
9fc00474:	2411ffff 	li	s1,-1
9fc00478:	26100500 	addiu	s0,s0,1280
9fc0047c:	afbf001c 	sw	ra,28(sp)
9fc00480:	8e020000 	lw	v0,0(s0)
9fc00484:	14510005 	bne	v0,s1,9fc0049c <__do_global_ctors_aux+0x38>
9fc00488:	8fbf001c 	lw	ra,28(sp)
9fc0048c:	8fb00014 	lw	s0,20(sp)
9fc00490:	8fb10018 	lw	s1,24(sp)
9fc00494:	03e00008 	jr	ra
9fc00498:	27bd0020 	addiu	sp,sp,32
9fc0049c:	0040f809 	jalr	v0
9fc004a0:	2610fffc 	addiu	s0,s0,-4
9fc004a4:	1000fff7 	b	9fc00484 <__do_global_ctors_aux+0x20>
9fc004a8:	8e020000 	lw	v0,0(s0)
9fc004ac:	00000000 	nop

Disassembly of section .init:

9fc004b0 <_init>:
_init():
9fc004b0:	27bdffe0 	addiu	sp,sp,-32
9fc004b4:	afbf0014 	sw	ra,20(sp)
9fc004b8:	0ff000f2 	jal	9fc003c8 <frame_dummy>
9fc004bc:	00000000 	nop
9fc004c0:	0ff00119 	jal	9fc00464 <__do_global_ctors_aux>
9fc004c4:	00000000 	nop

9fc004c8 <init>:
init():
9fc004c8:	8fbf0014 	lw	ra,20(sp)
9fc004cc:	03e00008 	jr	ra
9fc004d0:	27bd0020 	addiu	sp,sp,32

Disassembly of section .fini:

9fc004d4 <_fini>:
_fini():
9fc004d4:	27bdffe0 	addiu	sp,sp,-32
9fc004d8:	afbf0014 	sw	ra,20(sp)
9fc004dc:	0ff000c1 	jal	9fc00304 <__do_global_dtors_aux>
9fc004e0:	00000000 	nop

9fc004e4 <fini>:
fini():
9fc004e4:	8fbf0014 	lw	ra,20(sp)
9fc004e8:	03e00008 	jr	ra
9fc004ec:	27bd0020 	addiu	sp,sp,32

Disassembly of section .eh_frame:

9fc004f0 <__EH_FRAME_BEGIN__>:
9fc004f0:	00000000 	nop

Disassembly of section .data:

9fc004f4 <__dso_handle-0x4>:
9fc004f4:	00000000 	nop

9fc004f8 <__dso_handle>:
	...

Disassembly of section .ctors:

9fc00500 <__CTOR_LIST__>:
9fc00500:	ffffffff 	sdc3	$31,-1(ra)

9fc00504 <__CTOR_END__>:
9fc00504:	00000000 	nop

Disassembly of section .dtors:

9fc00508 <__DTOR_LIST__>:
9fc00508:	ffffffff 	sdc3	$31,-1(ra)

9fc0050c <__DTOR_END__>:
9fc0050c:	00000000 	nop

Disassembly of section .jcr:

9fc00510 <__JCR_END__>:
9fc00510:	00000000 	nop

Disassembly of section .bss:

80001000 <completed.3599>:
80001000:	00000000 	nop

80001004 <dtor_idx.3601>:
80001004:	00000000 	nop

80001008 <object.3611>:
	...

Disassembly of section .debug_line:

00000000 <.debug_line>:
   0:	000000e0 	0xe0
   4:	00300002 	ror	zero,s0,0x0
   8:	01010000 	0x1010000
   c:	000d0efb 	0xd0efb
  10:	01010101 	0x1010101
  14:	01000000 	0x1000000
  18:	2e010000 	sltiu	at,s0,0
  1c:	2e2e2f2e 	sltiu	t6,s1,12078
  20:	6d6f632f 	0x6d6f632f
  24:	2f6e6f6d 	sltiu	t6,k1,28525
  28:	6c697562 	0x6c697562
  2c:	62000064 	0x62000064
  30:	2e746f6f 	sltiu	s4,s3,28527
  34:	00010053 	0x10053
  38:	05000000 	bltz	t0,3c <__memory_size-0x1f7c4>
  3c:	c0000002 	ll	zero,2(zero)
  40:	0110039f 	0x110039f
  44:	4d4b8851 	0x4d4b8851
  48:	4b4b4c4b 	c2	0x14b4c4b
  4c:	4b4b4b4b 	c2	0x14b4b4b
  50:	4b4b4b4b 	c2	0x14b4b4b
  54:	4b4b4b4b 	c2	0x14b4b4b
  58:	4b4b4b4b 	c2	0x14b4b4b
  5c:	4b4b4b4b 	c2	0x14b4b4b
  60:	4b4b4b4b 	c2	0x14b4b4b
  64:	4c4b4b4b 	0x4c4b4b4b
  68:	514b4b4b 	beql	t2,t3,12d98 <__memory_size-0xca68>
  6c:	4b4b4d83 	c2	0x14b4d83
  70:	4b4b4d4b 	c2	0x14b4d4b
  74:	4b4b4c4b 	c2	0x14b4c4b
  78:	4b4b4c4b 	c2	0x14b4c4b
  7c:	4b4b4c4b 	c2	0x14b4c4b
  80:	4b4b4c4b 	c2	0x14b4c4b
  84:	4b4b4c4b 	c2	0x14b4c4b
  88:	4b4b4c4b 	c2	0x14b4c4b
  8c:	4e4b4c4b 	c3	0x4b4c4b
  90:	4a0a034d 	c2	0xa034d
  94:	4d4b4b4b 	0x4d4b4b4b
  98:	4b4b4b4b 	c2	0x14b4b4b
  9c:	4b4d4b4b 	c2	0x14d4b4b
  a0:	4c4b4b4b 	0x4c4b4b4b
  a4:	4b4b514b 	c2	0x14b514b
  a8:	4c4b4c4b 	0x4c4b4c4b
  ac:	4b4c4b4b 	c2	0x14c4b4b
  b0:	4b4c4b4b 	c2	0x14c4b4b
  b4:	4b4b4b4f 	c2	0x14b4b4f
  b8:	4b4a0c03 	c2	0x14a0c03
  bc:	834c4b4b 	lb	t4,19275(k0)
  c0:	4b4b504b 	c2	0x14b504b
  c4:	4c4b4c4b 	0x4c4b4c4b
  c8:	4b4c4b4b 	c2	0x14c4b4b
  cc:	4b4c4b4b 	c2	0x14c4b4b
  d0:	4b4b4f4b 	c2	0x14b4f4b
  d4:	4c834f4b 	0x4c834f4b
  d8:	834e4b83 	lb	t6,19331(k0)
  dc:	024b5086 	0x24b5086
  e0:	01010004 	sllv	zero,at,t0
  e4:	00000048 	0x48
  e8:	001d0002 	srl	zero,sp,0x0
  ec:	01010000 	0x1010000
  f0:	000d0efb 	0xd0efb
  f4:	01010101 	0x1010101
  f8:	01000000 	0x1000000
  fc:	00010000 	sll	zero,at,0x0
 100:	6e69616d 	0x6e69616d
 104:	0000632e 	0x632e
 108:	00000000 	nop
 10c:	04280205 	tgei	at,517
 110:	13159fc0 	beq	t8,s5,fffe8014 <__flash_start+0x403e8014>
 114:	04020088 	bltzl	zero,338 <__memory_size-0x1f4c8>
 118:	004a0601 	0x4a0601
 11c:	06010402 	bgez	s0,1128 <__memory_size-0x1e6d8>
 120:	040200f3 	bltzl	zero,4f0 <__memory_size-0x1f310>
 124:	02008301 	0x2008301
 128:	024c0104 	0x24c0104
 12c:	01010014 	0x1010014

Disassembly of section .debug_info:

00000000 <.debug_info>:
   0:	00000022 	neg	zero,zero
   4:	00000002 	srl	zero,zero,0x0
   8:	01040000 	0x1040000
   c:	00000000 	nop
  10:	9fc00000 	0x9fc00000
  14:	9fc0027c 	0x9fc0027c
  18:	00000000 	nop
  1c:	0000001a 	div	zero,zero,zero
  20:	00000056 	0x56
  24:	00738001 	0x738001
  28:	00020000 	sll	zero,v0,0x0
  2c:	00000014 	0x14
  30:	00650104 	0x650104
  34:	e00c0000 	sc	t4,0(zero)
  38:	e7000000 	swc1	$f0,0(t8)
  3c:	28000000 	slti	zero,zero,0
  40:	649fc004 	0x649fc004
  44:	e49fc004 	swc1	$f31,-16380(a0)
  48:	02000000 	0x2000000
  4c:	0000db01 	0xdb01
  50:	68030100 	0x68030100
  54:	28000000 	slti	zero,zero,0
  58:	649fc004 	0x649fc004
  5c:	029fc004 	sllv	t8,ra,s4
  60:	6801008d 	0x6801008d
  64:	03000000 	0x3000000
  68:	0501006e 	bgez	t0,224 <__memory_size-0x1f5dc>
  6c:	0000006f 	0x6f
  70:	00000000 	nop
  74:	c0043004 	ll	a0,12292(zero)
  78:	c0045c9f 	ll	a0,23711(zero)
  7c:	6176039f 	0x6176039f
  80:	0901006c 	j	40401b0 <__memory_size+0x40209b0>
  84:	0000006f 	0x6f
  88:	0000002c 	0x2c
  8c:	04050000 	0x4050000
  90:	746e6905 	jalx	1b9a414 <__memory_size+0x1b7ac14>
  94:	05080600 	tgei	t0,1536
  98:	000000cd 	break	0x0,0x3
	...

Disassembly of section .debug_abbrev:

00000000 <.debug_abbrev>:
   0:	10001101 	b	4408 <__memory_size-0x1b3f8>
   4:	12011106 	beq	s0,at,4420 <__memory_size-0x1b3e0>
   8:	1b0e0301 	0x1b0e0301
   c:	130e250e 	beq	t8,t6,9448 <__memory_size-0x163b8>
  10:	00000005 	lsa	zero,zero,zero,0x1
  14:	25011101 	addiu	at,t0,4353
  18:	030b130e 	0x30b130e
  1c:	110e1b0e 	beq	t0,t6,6c58 <__memory_size-0x18ba8>
  20:	10011201 	beq	zero,at,4828 <__memory_size-0x1afd8>
  24:	02000006 	srlv	zero,zero,s0
  28:	0c3f012e 	jal	fc04b8 <__memory_size+0xfa0cb8>
  2c:	0b3a0e03 	j	ce8380c <__memory_size+0xce6400c>
  30:	13490b3b 	beq	k0,t1,2d20 <__memory_size-0x1cae0>
  34:	01120111 	0x1120111
  38:	42970a40 	c0	0x970a40
  3c:	0013010c 	syscall	0x4c04
  40:	00340300 	0x340300
  44:	0b3a0803 	j	ce8200c <__memory_size+0xce6280c>
  48:	13490b3b 	beq	k0,t1,2d38 <__memory_size-0x1cac8>
  4c:	00000602 	srl	zero,zero,0x18
  50:	11010b04 	beq	t0,at,2c64 <__memory_size-0x1cb9c>
  54:	00011201 	0x11201
  58:	00240500 	0x240500
  5c:	0b3e0b0b 	j	cf82c2c <__memory_size+0xcf6342c>
  60:	00000803 	sra	at,zero,0x0
  64:	0b002406 	j	c009018 <__memory_size+0xbfe9818>
  68:	030b3e0b 	0x30b3e0b
  6c:	0000000e 	0xe

Disassembly of section .debug_aranges:

00000000 <.debug_aranges>:
   0:	0000001c 	0x1c
   4:	00000002 	srl	zero,zero,0x0
   8:	00040000 	sll	zero,a0,0x0
   c:	00000000 	nop
  10:	9fc00000 	0x9fc00000
  14:	0000027c 	0x27c
	...
  20:	0000001c 	0x1c
  24:	00260002 	ror	zero,a2,0x0
  28:	00040000 	sll	zero,a0,0x0
  2c:	00000000 	nop
  30:	9fc00428 	0x9fc00428
  34:	0000003c 	0x3c
	...

Disassembly of section .debug_str:

00000000 <.debug_str>:
   0:	2e2f2e2e 	sltiu	t7,s1,11822
   4:	6f632f2e 	0x6f632f2e
   8:	6e6f6d6d 	0x6e6f6d6d
   c:	6975622f 	0x6975622f
  10:	622f646c 	0x622f646c
  14:	2e746f6f 	sltiu	s4,s3,28527
  18:	682f0053 	0x682f0053
  1c:	2f656d6f 	sltiu	a1,k1,28015
  20:	2f6c737a 	sltiu	t4,k1,29562
  24:	6b726f77 	0x6b726f77
  28:	7469672f 	jalx	1a59cbc <__memory_size+0x1a3a4bc>
  2c:	2f627568 	sltiu	v0,k1,30056
  30:	7370696d 	0x7370696d
  34:	61677066 	0x61677066
  38:	756c702d 	jalx	5b1c0b4 <__memory_size+0x5afc8b4>
  3c:	737a5f73 	0x737a5f73
  40:	72702f6c 	0x72702f6c
  44:	6172676f 	0x6172676f
  48:	302f736d 	andi	t7,at,0x736d
  4c:	6f635f30 	0x6f635f30
  50:	65746e75 	0x65746e75
  54:	4e470072 	c3	0x470072
  58:	53412055 	beql	k0,at,81b0 <__memory_size-0x17650>
  5c:	322e3220 	andi	t6,s1,0x3220
  60:	31352e38 	andi	s5,t1,0x2e38
  64:	554e4700 	bnel	t2,t6,11c68 <__memory_size-0xdb98>
  68:	39394320 	xori	t9,t1,0x4320
  6c:	332e3620 	andi	t6,t9,0x3620
  70:	2d20302e 	sltiu	zero,t1,12334
  74:	206c656d 	addi	t4,v1,25965
  78:	72616d2d 	0x72616d2d
  7c:	6d3d6863 	0x6d3d6863
  80:	636b3431 	0x636b3431
  84:	736d2d20 	0x736d2d20
  88:	2d74666f 	sltiu	s4,t3,26223
  8c:	616f6c66 	0x616f6c66
  90:	6d2d2074 	0x6d2d2074
  94:	20746c70 	addi	s4,v1,27760
  98:	70696d2d 	0x70696d2d
  9c:	72323373 	0x72323373
  a0:	6d2d2032 	0x6d2d2032
  a4:	636e7973 	0x636e7973
  a8:	6d2d2069 	0x6d2d2069
  ac:	3d696261 	0x3d696261
  b0:	2d203233 	sltiu	zero,t1,12851
  b4:	672d2067 	0x672d2067
  b8:	72617764 	0x72617764
  bc:	20322d66 	addi	s2,at,11622
  c0:	20314f2d 	addi	s1,at,20269
  c4:	6474732d 	0x6474732d
  c8:	3939633d 	xori	t9,t1,0x633d
  cc:	6e6f6c00 	0x6e6f6c00
  d0:	6f6c2067 	0x6f6c2067
  d4:	6920676e 	0x6920676e
  d8:	6d00746e 	0x6d00746e
  dc:	006e6961 	0x6e6961
  e0:	6e69616d 	0x6e69616d
  e4:	2f00632e 	sltiu	zero,t8,25390
  e8:	656d6f68 	0x656d6f68
  ec:	6c737a2f 	0x6c737a2f
  f0:	726f772f 	0x726f772f
  f4:	69672f6b 	0x69672f6b
  f8:	62756874 	0x62756874
  fc:	70696d2f 	0x70696d2f
 100:	67706673 	0x67706673
 104:	6c702d61 	0x6c702d61
 108:	7a5f7375 	0x7a5f7375
 10c:	702f6c73 	0x702f6c73
 110:	72676f72 	0x72676f72
 114:	302f6d61 	andi	t7,at,0x6d61
 118:	6f635f30 	0x6f635f30
 11c:	65746e75 	0x65746e75
 120:	Address 0x0000000000000120 is out of bounds.


Disassembly of section .debug_loc:

00000000 <.debug_loc>:
   0:	00000000 	nop
   4:	0000000c 	syscall
   8:	089e000a 	j	2780028 <__memory_size+0x2760828>
   c:	00000000 	nop
  10:	00000000 	nop
  14:	0000000c 	syscall
  18:	0000003c 	0x3c
  1c:	93520006 	lbu	s2,6(k0)
  20:	04935504 	bgezall	a0,15434 <__memory_size-0xa3cc>
  24:	00000000 	nop
  28:	00000000 	nop
  2c:	0000000c 	syscall
  30:	00000034 	teq	zero,zero
  34:	93520006 	lbu	s2,6(k0)
  38:	04935504 	bgezall	a0,1544c <__memory_size-0xa3b4>
  3c:	00000000 	nop
  40:	00000000 	nop

Disassembly of section .debug_frame:

00000000 <.debug_frame>:
   0:	0000000c 	syscall
   4:	ffffffff 	sdc3	$31,-1(ra)
   8:	7c010001 	0x7c010001
   c:	001d0d1f 	0x1d0d1f
  10:	0000000c 	syscall
  14:	00000000 	nop
  18:	9fc00428 	0x9fc00428
  1c:	0000003c 	0x3c
