	.section .mdebug.abi32
	.previous
	.nan	legacy
	.module	softfloat
	.module	oddspreg
	.text
.Ltext0:
	.cfi_sections	.debug_frame
	.align	2
	.globl	_delay
.LFB0 = .
	.file 1 "main.c"
	.loc 1 32 0
	.cfi_startproc
	.set	nomips16
	.set	nomicromips
	.ent	_delay
	.type	_delay, @function
_delay:
	.frame	$sp,0,$31		# vars= 0, regs= 0/0, args= 0, gp= 0
	.mask	0x00000000,0
	.fmask	0x00000000,0
.LVL0 = .
.LBB2 = .
	.loc 1 33 0
	.set	noreorder
	.set	nomacro
	beq	$4,$0,.L5
	move	$2,$0
	.set	macro
	.set	reorder

.LVL1 = .
.L3:
	.loc 1 34 0 discriminator 3
 #APP
 # 34 "main.c" 1
	nop
 # 0 "" 2
	.loc 1 33 0 discriminator 3
 #NO_APP
	addiu	$2,$2,1
.LVL2 = .
	bne	$4,$2,.L3
.LVL3 = .
.L5:
	jr	$31
.LBE2 = .
	.end	_delay
	.cfi_endproc
.LFE0:
	.size	_delay, .-_delay
	.align	2
	.globl	statOut
.LFB1 = .
	.loc 1 39 0
	.cfi_startproc
	.set	nomips16
	.set	nomicromips
	.ent	statOut
	.type	statOut, @function
statOut:
	.frame	$sp,0,$31		# vars= 0, regs= 0/0, args= 0, gp= 0
	.mask	0x00000000,0
	.fmask	0x00000000,0
	.set	noreorder
	.set	nomacro
.LVL4 = .
	.loc 1 51 0
	li	$2,-1082130432			# 0xffffffffbf800000
	sw	$5,16($2)
	.loc 1 52 0
	sw	$4,4($2)
	jr	$31
	nop

	.set	macro
	.set	reorder
	.end	statOut
	.cfi_endproc
.LFE1:
	.size	statOut, .-statOut
	.align	2
	.globl	stepOut
.LFB2 = .
	.loc 1 58 0
	.cfi_startproc
	.set	nomips16
	.set	nomicromips
	.ent	stepOut
	.type	stepOut, @function
stepOut:
	.frame	$sp,0,$31		# vars= 0, regs= 0/0, args= 0, gp= 0
	.mask	0x00000000,0
	.fmask	0x00000000,0
	.set	noreorder
	.set	nomacro
.LVL5 = .
	.loc 1 59 0
	li	$2,1			# 0x1
	sll	$4,$2,$4
.LVL6 = .
	.loc 1 60 0
	andi	$4,$4,0xffff
	li	$2,-1082130432			# 0xffffffffbf800000
	sw	$4,0($2)
	jr	$31
	nop

	.set	macro
	.set	reorder
	.end	stepOut
	.cfi_endproc
.LFE2:
	.size	stepOut, .-stepOut
	.align	2
	.globl	cacheFlush
.LFB3 = .
	.loc 1 65 0
	.cfi_startproc
	.set	nomips16
	.set	nomicromips
	.ent	cacheFlush
	.type	cacheFlush, @function
cacheFlush:
	.frame	$sp,0,$31		# vars= 0, regs= 0/0, args= 0, gp= 0
	.mask	0x00000000,0
	.fmask	0x00000000,0
.LVL7 = .
	.loc 1 66 0
 #APP
 # 66 "main.c" 1
	cache 0x15, 0($4)
	
 # 0 "" 2
 #NO_APP
	jr	$31
	.end	cacheFlush
	.cfi_endproc
.LFE3:
	.size	cacheFlush, .-cacheFlush
	.align	2
	.globl	main
.LFB4 = .
	.loc 1 75 0
	.cfi_startproc
	.set	nomips16
	.set	nomicromips
	.ent	main
	.type	main, @function
main:
	.frame	$sp,56,$31		# vars= 0, regs= 10/0, args= 16, gp= 0
	.mask	0xc0ff0000,-4
	.fmask	0x00000000,0
	addiu	$sp,$sp,-56
.LCFI0 = .
	.cfi_def_cfa_offset 56
	sw	$31,52($sp)
	sw	$fp,48($sp)
	sw	$23,44($sp)
	sw	$22,40($sp)
	sw	$21,36($sp)
	sw	$20,32($sp)
	sw	$19,28($sp)
	sw	$18,24($sp)
	sw	$17,20($sp)
	sw	$16,16($sp)
	.cfi_offset 31, -4
	.cfi_offset 30, -8
	.cfi_offset 23, -12
	.cfi_offset 22, -16
	.cfi_offset 21, -20
	.cfi_offset 20, -24
	.cfi_offset 19, -28
	.cfi_offset 18, -32
	.cfi_offset 17, -36
	.cfi_offset 16, -40
.LVL8 = .
.LBB23 = .
.LBB24 = .
	.loc 1 60 0
	li	$3,1			# 0x1
	li	$2,-1082130432			# 0xffffffffbf800000
	sw	$3,0($2)
.LVL9 = .
	lui	$20,%hi(arr)
	addiu	$20,$20,%lo(arr)
	move	$3,$20
.LBE24 = .
.LBE23 = .
.LBB25 = .
	.loc 1 80 0
	move	$2,$0
	li	$4,10485760			# 0xa00000
.LVL10 = .
.L10:
	.loc 1 81 0 discriminator 3
	sw	$2,0($3)
	.loc 1 80 0 discriminator 3
	addiu	$2,$2,1
.LVL11 = .
	.set	noreorder
	.set	nomacro
	bne	$2,$4,.L10
	addiu	$3,$3,4
	.set	macro
	.set	reorder

	move	$19,$0
	move	$16,$0
.LBE25 = .
.LBB26 = .
.LBB27 = .
.LBB28 = .
	.loc 1 60 0
	li	$17,-1082130432			# 0xffffffffbf800000
	li	$fp,2			# 0x2
	lui	$18,%hi(arr+41943040)
	addiu	$18,$18,%lo(arr+41943040)
.LBE28 = .
.LBE27 = .
.LBB30 = .
.LBB31 = .
	li	$23,4			# 0x4
.LBE31 = .
.LBE30 = .
	.loc 1 93 0
	li	$21,983040			# 0xf0000
	addiu	$21,$21,16960
.LBE26 = .
	.loc 1 60 0
	.set	noreorder
	.set	nomacro
	b	.L14
	li	$22,8			# 0x8
	.set	macro
	.set	reorder

.LVL12 = .
.L12:
.L25:
.LBB46 = .
.LBB33 = .
	.loc 1 97 0 discriminator 2
	.set	noreorder
	.set	nomacro
	beq	$2,$5,.L23
	addiu	$3,$3,4
	.set	macro
	.set	reorder

.LVL13 = .
.L13:
	.loc 1 98 0
	lw	$4,0($3)
	.set	noreorder
	.set	nomacro
	beql	$4,$2,.L12
	addiu	$2,$2,1
	.set	macro
	.set	reorder

	.loc 1 99 0
	addiu	$16,$16,1
.LVL14 = .
	andi	$16,$16,0xffff
.LVL15 = .
.LBB34 = .
.LBB35 = .
	.loc 1 51 0
	sw	$16,16($17)
	.loc 1 52 0
	sw	$19,4($17)
.LBE35 = .
.LBE34 = .
.LBE33 = .
.LBE46 = .
	.loc 1 97 0
	.set	noreorder
	.set	nomacro
	b	.L25
	addiu	$2,$2,1
	.set	macro
	.set	reorder

.LVL16 = .
.L23:
.LBB47 = .
.LBB36 = .
.LBB37 = .
	.loc 1 51 0
	sw	$16,16($17)
	.loc 1 52 0
	sw	$19,4($17)
.LVL17 = .
	addiu	$19,$19,1
.LVL18 = .
.LBE37 = .
.LBE36 = .
	.loc 1 84 0
	li	$2,255			# 0xff
.LVL19 = .
	.set	noreorder
	.set	nomacro
	beql	$19,$2,.L24
	sltu	$16,$0,$16
	.set	macro
	.set	reorder

.LVL20 = .
.L14:
.LBB38 = .
.LBB29 = .
	.loc 1 60 0
	sw	$fp,0($17)
.LVL21 = .
	move	$2,$20
.LVL22 = .
.L11:
.LBE29 = .
.LBE38 = .
.LBB39 = .
.LBB40 = .
.LBB41 = .
	.loc 1 66 0 discriminator 3
 #APP
 # 66 "main.c" 1
	cache 0x15, 0($2)
	
 # 0 "" 2
.LVL23 = .
 #NO_APP
	addiu	$2,$2,4
.LBE41 = .
.LBE40 = .
	.loc 1 88 0 discriminator 3
	bne	$2,$18,.L11
.LVL24 = .
.LBE39 = .
.LBB42 = .
.LBB32 = .
	.loc 1 60 0
	sw	$23,0($17)
.LVL25 = .
.LBE32 = .
.LBE42 = .
	.loc 1 93 0
	.set	noreorder
	.set	nomacro
	jal	_delay
	move	$4,$21
	.set	macro
	.set	reorder

.LVL26 = .
.LBB43 = .
.LBB44 = .
	.loc 1 60 0
	sw	$22,0($17)
.LVL27 = .
	move	$3,$20
.LBE44 = .
.LBE43 = .
.LBB45 = .
	.loc 1 97 0
	move	$2,$0
.LBE45 = .
.LBE47 = .
	.set	noreorder
	.set	nomacro
	b	.L13
	li	$5,10485760			# 0xa00000
	.set	macro
	.set	reorder

.LVL28 = .
.L24:
	.loc 1 108 0
	addiu	$16,$16,4
.LVL29 = .
.LBB48 = .
.LBB49 = .
	.loc 1 59 0
	li	$2,1			# 0x1
	sll	$16,$2,$16
.LVL30 = .
	.loc 1 60 0
	andi	$2,$16,0xffff
	li	$3,-1082130432			# 0xffffffffbf800000
	sw	$2,0($3)
.L16:
	b	.L16
.LBE49 = .
.LBE48 = .
	.end	main
	.cfi_endproc
.LFE4:
	.size	main, .-main

	.comm	arr,41943040,4
.Letext0:
	.file 2 "/opt/imgtec/Toolchains/mips-mti-elf/2017.10-05/mips-mti-elf/include/machine/_default_types.h"
	.file 3 "/opt/imgtec/Toolchains/mips-mti-elf/2017.10-05/mips-mti-elf/include/sys/_stdint.h"